; Function Attrs: mustprogress nofree norecurse nosync nounwind willreturn memory(read, inaccessiblemem: none) uwtable
define internal i32 @php_sxe_iterator_valid(ptr nocapture noundef readonly %0) #11 {
  %2 = getelementptr inbounds i8, ptr %0, i64 88
  %3 = load ptr, ptr %2, align 8
  %4 = getelementptr inbounds i8, ptr %3, i64 64
  %5 = load i8, ptr %4, align 8
  %6 = icmp eq i8 %5, 0
  %7 = sext i1 %6 to i32
  ret i32 %7
}